
woody:     file format elf64-x86-64


Disassembly of section .init:

0000000000000578 <_init>:
 578:	50                   	push   %rax
 579:	e8 77 01 00 00       	callq  6f5 <frame_dummy>
 57e:	e8 e7 01 00 00       	callq  76a <__do_global_ctors_aux>
 583:	58                   	pop    %rax
 584:	c3                   	retq   

Disassembly of section .plt:

0000000000000590 <.plt>:
 590:	ff 35 12 0a 20 00    	pushq  0x200a12(%rip)        # 200fa8 <_GLOBAL_OFFSET_TABLE_+0x8>
 596:	ff 25 14 0a 20 00    	jmpq   *0x200a14(%rip)        # 200fb0 <_GLOBAL_OFFSET_TABLE_+0x10>
 59c:	0f 1f 40 00          	nopl   0x0(%rax)

Disassembly of section .plt.got:

00000000000005a0 <.plt.got>:
 5a0:	ff 25 12 0a 20 00    	jmpq   *0x200a12(%rip)        # 200fb8 <puts>
 5a6:	66 90                	xchg   %ax,%ax
 5a8:	ff 25 12 0a 20 00    	jmpq   *0x200a12(%rip)        # 200fc0 <__cxa_finalize>
 5ae:	66 90                	xchg   %ax,%ax
 5b0:	ff 25 1a 0a 20 00    	jmpq   *0x200a1a(%rip)        # 200fd0 <__deregister_frame_info>
 5b6:	66 90                	xchg   %ax,%ax
 5b8:	ff 25 2a 0a 20 00    	jmpq   *0x200a2a(%rip)        # 200fe8 <__libc_start_main>
 5be:	66 90                	xchg   %ax,%ax
 5c0:	ff 25 32 0a 20 00    	jmpq   *0x200a32(%rip)        # 200ff8 <__register_frame_info>
 5c6:	66 90                	xchg   %ax,%ax

Disassembly of section .text:

00000000000005c8 <_start>:
 5c8:	48 31 ed             	xor    %rbp,%rbp
 5cb:	48 89 e7             	mov    %rsp,%rdi
 5ce:	48 8d 35 7b 08 20 00 	lea    0x20087b(%rip),%rsi        # 200e50 <_DYNAMIC>
 5d5:	48 83 e4 f0          	and    $0xfffffffffffffff0,%rsp
 5d9:	e8 00 00 00 00       	callq  5de <_start_c>

00000000000005de <_start_c>:
 5de:	48 83 ec 08          	sub    $0x8,%rsp
 5e2:	48 8d 57 08          	lea    0x8(%rdi),%rdx
 5e6:	48 8b 37             	mov    (%rdi),%rsi
 5e9:	4c 8d 05 8e 01 00 00 	lea    0x18e(%rip),%r8        # 77e <__do_global_ctors_aux+0x14>
 5f0:	48 8b 0d d1 09 20 00 	mov    0x2009d1(%rip),%rcx        # 200fc8 <_GLOBAL_OFFSET_TABLE_+0x28>
 5f7:	45 31 c9             	xor    %r9d,%r9d
 5fa:	48 8d 3d 36 01 00 00 	lea    0x136(%rip),%rdi        # 737 <random_program>
 601:	e8 b2 ff ff ff       	callq  5b8 <.plt.got+0x18>

0000000000000606 <deregister_tm_clones>:
 606:	48 8d 3d fb 09 20 00 	lea    0x2009fb(%rip),%rdi        # 201008 <__TMC_END__>
 60d:	48 8d 05 fb 09 20 00 	lea    0x2009fb(%rip),%rax        # 20100f <__TMC_END__+0x7>
 614:	55                   	push   %rbp
 615:	48 29 f8             	sub    %rdi,%rax
 618:	48 89 e5             	mov    %rsp,%rbp
 61b:	48 83 f8 0e          	cmp    $0xe,%rax
 61f:	76 0f                	jbe    630 <deregister_tm_clones+0x2a>
 621:	48 8b 05 b8 09 20 00 	mov    0x2009b8(%rip),%rax        # 200fe0 <_ITM_deregisterTMCloneTable>
 628:	48 85 c0             	test   %rax,%rax
 62b:	74 03                	je     630 <deregister_tm_clones+0x2a>
 62d:	5d                   	pop    %rbp
 62e:	ff e0                	jmpq   *%rax
 630:	5d                   	pop    %rbp
 631:	c3                   	retq   

0000000000000632 <register_tm_clones>:
 632:	48 8d 3d cf 09 20 00 	lea    0x2009cf(%rip),%rdi        # 201008 <__TMC_END__>
 639:	48 8d 35 c8 09 20 00 	lea    0x2009c8(%rip),%rsi        # 201008 <__TMC_END__>
 640:	b9 02 00 00 00       	mov    $0x2,%ecx
 645:	55                   	push   %rbp
 646:	48 29 fe             	sub    %rdi,%rsi
 649:	48 c1 fe 03          	sar    $0x3,%rsi
 64d:	48 89 e5             	mov    %rsp,%rbp
 650:	48 89 f0             	mov    %rsi,%rax
 653:	48 99                	cqto   
 655:	48 f7 f9             	idiv   %rcx
 658:	48 85 c0             	test   %rax,%rax
 65b:	74 12                	je     66f <register_tm_clones+0x3d>
 65d:	48 89 c6             	mov    %rax,%rsi
 660:	48 8b 05 71 09 20 00 	mov    0x200971(%rip),%rax        # 200fd8 <_ITM_registerTMCloneTable>
 667:	48 85 c0             	test   %rax,%rax
 66a:	74 03                	je     66f <register_tm_clones+0x3d>
 66c:	5d                   	pop    %rbp
 66d:	ff e0                	jmpq   *%rax
 66f:	5d                   	pop    %rbp
 670:	c3                   	retq   

0000000000000671 <__do_global_dtors_aux>:
 671:	80 3d a8 09 20 00 00 	cmpb   $0x0,0x2009a8(%rip)        # 201020 <completed.5771>
 678:	75 7a                	jne    6f4 <__do_global_dtors_aux+0x83>
 67a:	48 83 3d 3e 09 20 00 	cmpq   $0x0,0x20093e(%rip)        # 200fc0 <__cxa_finalize>
 681:	00 
 682:	55                   	push   %rbp
 683:	48 89 e5             	mov    %rsp,%rbp
 686:	41 54                	push   %r12
 688:	53                   	push   %rbx
 689:	74 0c                	je     697 <__do_global_dtors_aux+0x26>
 68b:	48 8b 3d 6e 09 20 00 	mov    0x20096e(%rip),%rdi        # 201000 <__dso_handle>
 692:	e8 11 ff ff ff       	callq  5a8 <.plt.got+0x8>
 697:	48 8d 05 9a 07 20 00 	lea    0x20079a(%rip),%rax        # 200e38 <__DTOR_LIST__>
 69e:	48 8d 1d 9b 07 20 00 	lea    0x20079b(%rip),%rbx        # 200e40 <__DTOR_END__>
 6a5:	48 29 c3             	sub    %rax,%rbx
 6a8:	49 89 c4             	mov    %rax,%r12
 6ab:	48 c1 fb 03          	sar    $0x3,%rbx
 6af:	48 ff cb             	dec    %rbx
 6b2:	48 8b 05 6f 09 20 00 	mov    0x20096f(%rip),%rax        # 201028 <dtor_idx.5773>
 6b9:	48 39 c3             	cmp    %rax,%rbx
 6bc:	76 10                	jbe    6ce <__do_global_dtors_aux+0x5d>
 6be:	48 ff c0             	inc    %rax
 6c1:	48 89 05 60 09 20 00 	mov    %rax,0x200960(%rip)        # 201028 <dtor_idx.5773>
 6c8:	41 ff 14 c4          	callq  *(%r12,%rax,8)
 6cc:	eb e4                	jmp    6b2 <__do_global_dtors_aux+0x41>
 6ce:	e8 33 ff ff ff       	callq  606 <deregister_tm_clones>
 6d3:	48 83 3d f5 08 20 00 	cmpq   $0x0,0x2008f5(%rip)        # 200fd0 <__deregister_frame_info>
 6da:	00 
 6db:	74 0c                	je     6e9 <__do_global_dtors_aux+0x78>
 6dd:	48 8d 3d 3c 01 00 00 	lea    0x13c(%rip),%rdi        # 820 <__GNU_EH_FRAME_HDR+0x64>
 6e4:	e8 c7 fe ff ff       	callq  5b0 <.plt.got+0x10>
 6e9:	5b                   	pop    %rbx
 6ea:	41 5c                	pop    %r12
 6ec:	5d                   	pop    %rbp
 6ed:	c6 05 2c 09 20 00 01 	movb   $0x1,0x20092c(%rip)        # 201020 <completed.5771>
 6f4:	c3                   	retq   

00000000000006f5 <frame_dummy>:
 6f5:	48 83 3d fb 08 20 00 	cmpq   $0x0,0x2008fb(%rip)        # 200ff8 <__register_frame_info>
 6fc:	00 
 6fd:	55                   	push   %rbp
 6fe:	48 89 e5             	mov    %rsp,%rbp
 701:	74 13                	je     716 <frame_dummy+0x21>
 703:	48 8d 35 36 09 20 00 	lea    0x200936(%rip),%rsi        # 201040 <object.5783>
 70a:	48 8d 3d 0f 01 00 00 	lea    0x10f(%rip),%rdi        # 820 <__GNU_EH_FRAME_HDR+0x64>
 711:	e8 aa fe ff ff       	callq  5c0 <.plt.got+0x20>
 716:	48 8d 3d 2b 07 20 00 	lea    0x20072b(%rip),%rdi        # 200e48 <__JCR_END__>
 71d:	48 83 3f 00          	cmpq   $0x0,(%rdi)
 721:	74 0e                	je     731 <frame_dummy+0x3c>
 723:	48 8b 05 c6 08 20 00 	mov    0x2008c6(%rip),%rax        # 200ff0 <_Jv_RegisterClasses>
 72a:	48 85 c0             	test   %rax,%rax
 72d:	74 02                	je     731 <frame_dummy+0x3c>
 72f:	ff d0                	callq  *%rax
 731:	5d                   	pop    %rbp
 732:	e9 fb fe ff ff       	jmpq   632 <register_tm_clones>

0000000000000737 <random_program>:
 737:	55                   	push   %rbp
 738:	48 89 e5             	mov    %rsp,%rbp
 73b:	48 83 ec 10          	sub    $0x10,%rsp
 73f:	89 7d fc             	mov    %edi,-0x4(%rbp)
 742:	48 89 75 f0          	mov    %rsi,-0x10(%rbp)
 746:	48 8d 3d 39 00 00 00 	lea    0x39(%rip),%rdi        # 786 <__do_global_ctors_aux+0x1c>

000000000000074a <main>:
 74a:	00 00                	add    %al,(%rax)
 74c:	00 e8                	add    %ch,%al
 74e:	4e fe                	rex.WRX (bad) 
 750:	ff                   	(bad)  
 751:	ff                   	(bad)  
 752:	b8 00 00 00 00       	mov    $0x0,%eax
 757:	c9                   	leaveq 
 758:	c3                   	retq   
 759:	55                   	push   %rbp
 75a:	48 89 e5             	mov    %rsp,%rbp
 75d:	53                   	push   %rbx
 75e:	48 8d 1d cb 06 20 00 	lea    0x2006cb(%rip),%rbx        # 200e30 <__CTOR_END__>
 765:	48 83 ec 08          	sub    $0x8,%rsp
 769:	48 83 eb 08          	sub    $0x8,%rbx

000000000000076a <__do_global_ctors_aux>:
 76a:	83 eb 08             	sub    $0x8,%ebx
 76d:	48 8b 03             	mov    (%rbx),%rax
 770:	48 83 f8 ff          	cmp    $0xffffffffffffffff,%rax
 774:	74 04                	je     77a <__do_global_ctors_aux+0x10>
 776:	ff d0                	callq  *%rax
 778:	eb ef                	jmp    769 <main+0x1f>
 77a:	58                   	pop    %rax
 77b:	5b                   	pop    %rbx
 77c:	5d                   	pop    %rbp
 77d:	c3                   	retq   
 77e:	48 8b 03             	mov    (%rbx),%rax
 781:	48 83 f8 ff          	cmp    $0xffffffffffffffff,%rax
 785:	74 04                	je     78b <__do_global_ctors_aux+0x21>
 787:	ff d0                	callq  *%rax
 789:	eb ef                	jmp    77a <__do_global_ctors_aux+0x10>
 78b:	58                   	pop    %rax
 78c:	5b                   	pop    %rbx
 78d:	5d                   	pop    %rbp
 78e:	c3                   	retq   

Disassembly of section .fini:

000000000000078f <_fini>:
 78f:	50                   	push   %rax
 790:	e8 dc fe ff ff       	callq  671 <__do_global_dtors_aux>
 795:	58                   	pop    %rax
 796:	c3                   	retq   
